; Function Attrs: mustprogress uwtable
define hidden noundef ptr @_ZN7datalog21check_relation_plugin12mk_rename_fnERKNS_13relation_baseEjPKj(ptr noundef nonnull readonly align 8 captures(none) dereferenceable(56) %0, ptr noundef nonnull align 8 dereferenceable(28) %1, i32 noundef %2, ptr noundef %3) unnamed_addr #3 align 2 personality ptr @__gxx_personality_v0 {
  %5 = tail call ptr @__dynamic_cast(ptr nonnull readonly align 8 dereferenceable(28) %1, ptr nonnull @_ZTIN7datalog13relation_baseE, ptr nonnull @_ZTIN7datalog14check_relationE, i64 0) #24
  %6 = icmp eq ptr %5, null
  br i1 %6, label %7, label %_ZN7datalog21check_relation_plugin3getERKNS_13relation_baseE.exit

7:                                                ; preds = %4
  tail call void @__cxa_bad_cast() #27
  unreachable

_ZN7datalog21check_relation_plugin3getERKNS_13relation_baseE.exit: ; preds = %4
  %8 = getelementptr inbounds nuw i8, ptr %0, i64 48
  %9 = load ptr, ptr %8, align 8, !tbaa !384
  %10 = getelementptr inbounds nuw i8, ptr %5, i64 40
  %11 = load ptr, ptr %10, align 8, !tbaa !29
  %12 = load ptr, ptr %9, align 8, !tbaa !3
  %13 = getelementptr inbounds nuw i8, ptr %12, i64 104
  %14 = load ptr, ptr %13, align 8
  %15 = tail call noundef ptr %14(ptr noundef nonnull align 8 dereferenceable(32) %9, ptr noundef nonnull align 8 dereferenceable(28) %11, i32 noundef %2, ptr noundef %3)
  %.not = icmp eq ptr %15, null
  br i1 %.not, label %20, label %16

16:                                               ; preds = %_ZN7datalog21check_relation_plugin3getERKNS_13relation_baseE.exit
  %17 = tail call noalias noundef ptr @_ZN6memory8allocateEm(i64 noundef 32)
  %18 = getelementptr inbounds nuw i8, ptr %1, i64 16
  tail call void @_ZN7datalog17tr_infrastructureINS_15relation_traitsEE20convenient_rename_fnC2ERKNS_18relation_signatureEjPKj(ptr noundef nonnull align 8 dereferenceable(32) %17, ptr noundef nonnull align 8 dereferenceable(8) %18, i32 noundef %2, ptr noundef %3)
  store ptr getelementptr inbounds nuw inrange(-16, 24) (i8, ptr @_ZTVN7datalog21check_relation_plugin9rename_fnE, i64 16), ptr %17, align 8, !tbaa !3
  %19 = getelementptr inbounds nuw i8, ptr %17, i64 24
  store ptr %15, ptr %19, align 8, !tbaa !641
  br label %20

20:                                               ; preds = %_ZN7datalog21check_relation_plugin3getERKNS_13relation_baseE.exit, %16
  %21 = phi ptr [ %17, %16 ], [ null, %_ZN7datalog21check_relation_plugin3getERKNS_13relation_baseE.exit ]
  ret ptr %21
}